; Function Attrs: nounwind uwtable
define internal void @lv_label_constructor(ptr nocapture readnone %0, ptr noundef %1) #0 {
  %3 = getelementptr inbounds nuw i8, ptr %1, i64 64
  store ptr null, ptr %3, align 8, !tbaa !3
  %4 = getelementptr inbounds nuw i8, ptr %1, i64 116
  %5 = load i8, ptr %4, align 4
  %6 = getelementptr inbounds nuw i8, ptr %1, i64 76
  store i32 -1, ptr %6, align 4, !tbaa !14
  %7 = and i8 %5, -32
  store i8 %7, ptr %4, align 4
  %8 = getelementptr inbounds nuw i8, ptr %1, i64 108
  tail call void @lv_point_set(ptr noundef nonnull %8, i32 noundef 0, i32 noundef 0) #7
  %9 = getelementptr inbounds nuw i8, ptr %1, i64 80
  store i32 -1, ptr %9, align 8, !tbaa !15
  %10 = getelementptr inbounds nuw i8, ptr %1, i64 88
  store i32 0, ptr %10, align 8, !tbaa !16
  %11 = getelementptr inbounds nuw i8, ptr %1, i64 84
  store i32 0, ptr %11, align 4, !tbaa !17
  %12 = getelementptr inbounds nuw i8, ptr %1, i64 92
  store i32 65535, ptr %12, align 4, !tbaa !18
  %13 = getelementptr inbounds nuw i8, ptr %1, i64 96
  store i32 65535, ptr %13, align 8, !tbaa !19
  tail call void @lv_obj_remove_flag(ptr noundef %1, i32 noundef 2) #7
  %14 = tail call zeroext i1 @lv_anim_delete(ptr noundef %1, ptr noundef nonnull @set_ofs_x_anim) #7
  %15 = tail call zeroext i1 @lv_anim_delete(ptr noundef %1, ptr noundef nonnull @set_ofs_y_anim) #7
  tail call void @lv_point_set(ptr noundef nonnull %8, i32 noundef 0, i32 noundef 0) #7
  %16 = load i8, ptr %4, align 4
  %17 = and i8 %16, -40
  store i8 %17, ptr %4, align 4
  tail call fastcc void @lv_label_refr_text(ptr noundef nonnull %1)
  tail call void @lv_label_set_text(ptr noundef %1, ptr noundef nonnull @.str.1)
  ret void
}